; Function Attrs: mustprogress nounwind uwtable
define hidden void @_ZNK12cmpD_memNode4emitEP17C2_MacroAssemblerP13PhaseRegAlloc(ptr noundef nonnull align 8 dereferenceable(88) %0, ptr noundef %1, ptr noundef %2) unnamed_addr #3 align 2 {
  %4 = alloca %class.Label, align 8
  %5 = alloca %class.Address, align 8
  %6 = alloca %class.Address, align 8
  %7 = getelementptr inbounds i8, ptr %0, i64 64
  %8 = getelementptr inbounds i8, ptr %0, i64 72
  %9 = load ptr, ptr %8, align 8
  %10 = load ptr, ptr %9, align 8
  %11 = getelementptr inbounds i8, ptr %10, i64 8
  %12 = load ptr, ptr %11, align 8
  %13 = tail call noundef i32 %12(ptr noundef nonnull align 8 dereferenceable(8) %9) #23
  %14 = add i32 %13, 2
  %15 = load ptr, ptr %8, align 8
  %16 = load ptr, ptr %15, align 8
  %17 = getelementptr inbounds i8, ptr %16, i64 40
  %18 = load ptr, ptr %17, align 8
  %19 = tail call noundef i32 %18(ptr noundef nonnull align 8 dereferenceable(8) %15, ptr noundef %2, ptr noundef nonnull %0, i32 noundef 2) #23
  %or.cond.i.i = icmp ult i32 %19, 32
  %spec.select.i.i = select i1 %or.cond.i.i, i32 %19, i32 -1
  %20 = getelementptr inbounds i8, ptr %0, i64 80
  %21 = load ptr, ptr %20, align 8
  %22 = load ptr, ptr %21, align 8
  %23 = getelementptr inbounds i8, ptr %22, i64 104
  %24 = load ptr, ptr %23, align 8
  %25 = tail call noundef i32 %24(ptr noundef nonnull align 8 dereferenceable(8) %21, ptr noundef %2, ptr noundef nonnull %0, i32 noundef %14) #23
  %26 = load ptr, ptr %20, align 8
  %27 = load ptr, ptr %26, align 8
  %28 = getelementptr inbounds i8, ptr %27, i64 112
  %29 = load ptr, ptr %28, align 8
  %30 = tail call noundef i32 %29(ptr noundef nonnull align 8 dereferenceable(8) %26, ptr noundef %2, ptr noundef nonnull %0, i32 noundef %14) #23
  %31 = load ptr, ptr %20, align 8
  %32 = load ptr, ptr %31, align 8
  %33 = getelementptr inbounds i8, ptr %32, i64 120
  %34 = load ptr, ptr %33, align 8
  %35 = tail call noundef i32 %34(ptr noundef nonnull align 8 dereferenceable(8) %31) #23
  %36 = load ptr, ptr %20, align 8
  %37 = load ptr, ptr %36, align 8
  %38 = getelementptr inbounds i8, ptr %37, i64 128
  %39 = load ptr, ptr %38, align 8
  %40 = tail call noundef i32 %39(ptr noundef nonnull align 8 dereferenceable(8) %36, ptr noundef %2, ptr noundef nonnull %0, i32 noundef %14) #23
  %41 = load ptr, ptr %20, align 8
  %42 = load ptr, ptr %41, align 8
  %43 = getelementptr inbounds i8, ptr %42, i64 136
  %44 = load ptr, ptr %43, align 8
  %45 = tail call noundef i32 %44(ptr noundef nonnull align 8 dereferenceable(8) %41) #23
  call void @_ZN7Address8make_rawEiiiiN9relocInfo9relocTypeE(ptr dead_on_unwind nonnull writable sret(%class.Address) align 8 %6, i32 noundef %25, i32 noundef %30, i32 noundef %35, i32 noundef %40, i32 noundef %45) #23
  call void @llvm.lifetime.start.p0(i64 64, ptr nonnull %5)
  call void @llvm.memcpy.p0.p0.i64(ptr noundef nonnull align 8 dereferenceable(21) %5, ptr noundef nonnull align 8 dereferenceable(21) %6, i64 21, i1 false)
  %46 = getelementptr inbounds i8, ptr %5, i64 24
  %47 = getelementptr inbounds i8, ptr %6, i64 24
  %48 = load ptr, ptr %47, align 8
  %49 = getelementptr inbounds i8, ptr %48, i64 16
  %50 = load ptr, ptr %49, align 8
  call void %50(ptr noundef nonnull align 8 dereferenceable(20) %47, ptr noundef nonnull align 8 dereferenceable(40) %46) #23
  call void @_ZN9Assembler7ucomisdE11XMMRegister7Address(ptr noundef nonnull align 8 dereferenceable(40) %1, i32 %spec.select.i.i, ptr noundef nonnull %5) #23
  call void @llvm.lifetime.end.p0(i64 64, ptr nonnull %5)
  %51 = load ptr, ptr %7, align 8
  %52 = load ptr, ptr %51, align 8
  %53 = getelementptr inbounds i8, ptr %52, i64 32
  %54 = load ptr, ptr %53, align 8
  %55 = call noundef i32 %54(ptr noundef nonnull align 8 dereferenceable(8) %51, ptr noundef %2, ptr noundef nonnull %0) #23
  %or.cond.i.i13 = icmp ult i32 %55, 32
  %spec.select.i.i14 = select i1 %or.cond.i.i13, i32 %55, i32 -1
  call void @llvm.lifetime.start.p0(i64 40, ptr nonnull %4)
  store i32 -1, ptr %4, align 8
  %56 = getelementptr inbounds i8, ptr %4, i64 20
  store i32 0, ptr %56, align 4
  %57 = getelementptr inbounds i8, ptr %4, i64 24
  store ptr null, ptr %57, align 8
  %58 = getelementptr inbounds i8, ptr %4, i64 32
  store i8 0, ptr %58, align 8
  call void @_ZN9Assembler4movlE8Registeri(ptr noundef nonnull align 8 dereferenceable(40) %1, i32 %spec.select.i.i14, i32 noundef -1) #23
  call void @_ZN9Assembler3jccENS_9ConditionER5Labelb(ptr noundef nonnull align 8 dereferenceable(40) %1, i32 noundef 10, ptr noundef nonnull align 8 dereferenceable(33) %4, i1 noundef zeroext true) #23
  call void @_ZN9Assembler3jccENS_9ConditionER5Labelb(ptr noundef nonnull align 8 dereferenceable(40) %1, i32 noundef 2, ptr noundef nonnull align 8 dereferenceable(33) %4, i1 noundef zeroext true) #23
  call void @_ZN9Assembler4setbENS_9ConditionE8Register(ptr noundef nonnull align 8 dereferenceable(40) %1, i32 noundef 5, i32 %spec.select.i.i14) #23
  call void @_ZN9Assembler6movzblE8RegisterS0_(ptr noundef nonnull align 8 dereferenceable(40) %1, i32 %spec.select.i.i14, i32 %spec.select.i.i14) #23
  call void @_ZN17AbstractAssembler4bindER5Label(ptr noundef nonnull align 8 dereferenceable(24) %1, ptr noundef nonnull align 8 dereferenceable(33) %4) #23
  call void @llvm.lifetime.end.p0(i64 40, ptr nonnull %4)
  ret void
}